; Function Attrs: nounwind uwtable
define internal void @X11_DeleteDevice(ptr noundef %0) #0 {
  %2 = getelementptr inbounds nuw i8, ptr %0, i64 1656
  %3 = load ptr, ptr %2, align 8
  %4 = getelementptr inbounds nuw i8, ptr %0, i64 1648
  %5 = load ptr, ptr %4, align 8
  %.not = icmp eq ptr %5, null
  br i1 %.not, label %9, label %6

6:                                                ; preds = %1
  %7 = getelementptr inbounds nuw i8, ptr %0, i64 496
  %8 = load ptr, ptr %7, align 8
  tail call void %8(ptr noundef nonnull %0) #5
  br label %9

9:                                                ; preds = %6, %1
  %10 = load ptr, ptr %3, align 8
  %.not12 = icmp eq ptr %10, null
  br i1 %.not12, label %14, label %11

11:                                               ; preds = %9
  %12 = load ptr, ptr @X11_XCloseDisplay, align 8
  %13 = tail call i32 %12(ptr noundef nonnull %10) #5
  br label %14

14:                                               ; preds = %11, %9
  %15 = getelementptr inbounds nuw i8, ptr %3, i64 8
  %16 = load ptr, ptr %15, align 8
  %.not13 = icmp eq ptr %16, null
  br i1 %.not13, label %20, label %17

17:                                               ; preds = %14
  %18 = load ptr, ptr @X11_XCloseDisplay, align 8
  %19 = tail call i32 %18(ptr noundef nonnull %16) #5
  br label %20

20:                                               ; preds = %17, %14
  %21 = getelementptr inbounds nuw i8, ptr %3, i64 48
  %22 = load ptr, ptr %21, align 8
  tail call void @SDL_free_REAL(ptr noundef %22) #5
  %23 = load ptr, ptr %2, align 8
  tail call void @SDL_free_REAL(ptr noundef %23) #5
  tail call void @SDL_free_REAL(ptr noundef nonnull %0) #5
  tail call void @SDL_X11_UnloadSymbols() #5
  ret void
}